target datalayout = "e-m:e-p270:32:32-p271:32:32-p272:64:64-i64:64-i128:128-f80:128-n8:16:32:64-S128"
target triple = "x86_64-pc-linux-gnu"

%"struct.OpenImageIO::v3_1_0::ROI" = type { i32, i32, i32, i32, i32, i32, i32, i32 }

; Function Attrs: mustprogress nounwind uwtable
define linkonce_odr noundef ptr @_ZNKSt9_Any_data9_M_accessEv(ptr noundef nonnull align 8 dereferenceable(16) %0) #8 comdat align 2 {
  %2 = alloca ptr, align 8
  store ptr %0, ptr %2, align 8, !tbaa !352
  %3 = load ptr, ptr %2, align 8
  %4 = getelementptr inbounds [16 x i8], ptr %3, i64 0, i64 0
  ret ptr %4
}

; Function Attrs: mustprogress uwtable
define internal void @_ZSt13__invoke_implIvRZN11OpenImageIO6v3_1_0L10morph_implIttEEbRNS1_8ImageBufERKS3_iiNS1_7MorphOpENS1_3ROIEiEUlS8_E_JS8_EET_St14__invoke_otherOT0_DpOT1_(ptr noundef nonnull align 8 dereferenceable(40) %0, ptr noundef nonnull align 4 dereferenceable(32) %1) #6 {
  %3 = alloca ptr, align 8
  %4 = alloca ptr, align 8
  %5 = alloca %"struct.OpenImageIO::v3_1_0::ROI", align 8
  store ptr %0, ptr %3, align 8, !tbaa !133
  store ptr %1, ptr %4, align 8, !tbaa !8
  %6 = load ptr, ptr %3, align 8, !tbaa !133
  %7 = load ptr, ptr %4, align 8, !tbaa !8
  call void @llvm.memcpy.p0.p0.i64(ptr align 4 %5, ptr align 4 %7, i64 32, i1 false), !tbaa.struct !16
  call void @_ZZN11OpenImageIO6v3_1_0L10morph_implIttEEbRNS0_8ImageBufERKS2_iiNS0_7MorphOpENS0_3ROIEiENKUlS7_E_clES7_(ptr noundef nonnull align 8 dereferenceable(40) %6, ptr noundef byval(%"struct.OpenImageIO::v3_1_0::ROI") align 8 %5)
  ret void
}

; Function Attrs: mustprogress nounwind uwtable
define internal noundef nonnull align 8 dereferenceable(8) ptr @_ZNKSt9_Any_data9_M_accessIPZN11OpenImageIO6v3_1_0L10morph_implIttEEbRNS2_8ImageBufERKS4_iiNS2_7MorphOpENS2_3ROIEiEUlS9_E_EERKT_v(ptr noundef nonnull align 8 dereferenceable(16) %0) #8 align 2 {
  %2 = alloca ptr, align 8
  store ptr %0, ptr %2, align 8, !tbaa !352
  %3 = load ptr, ptr %2, align 8
  %4 = call noundef ptr @_ZNKSt9_Any_data9_M_accessEv(ptr noundef nonnull align 8 dereferenceable(16) %3) #3
  ret ptr %4
}

; Function Attrs: mustprogress uwtable
define internal void @_ZSt10__invoke_rIvRZN11OpenImageIO6v3_1_0L10morph_implIttEEbRNS1_8ImageBufERKS3_iiNS1_7MorphOpENS1_3ROIEiEUlS8_E_JS8_EENSt9enable_ifIX16is_invocable_r_vIT_T0_DpT1_EESC_E4typeEOSD_DpOSE_(ptr noundef nonnull align 8 dereferenceable(40) %0, ptr noundef nonnull align 4 dereferenceable(32) %1) #6 {
  %3 = alloca ptr, align 8
  %4 = alloca ptr, align 8
  store ptr %0, ptr %3, align 8, !tbaa !133
  store ptr %1, ptr %4, align 8, !tbaa !8
  %5 = load ptr, ptr %3, align 8, !tbaa !133
  %6 = load ptr, ptr %4, align 8, !tbaa !8
  call void @_ZSt13__invoke_implIvRZN11OpenImageIO6v3_1_0L10morph_implIttEEbRNS1_8ImageBufERKS3_iiNS1_7MorphOpENS1_3ROIEiEUlS8_E_JS8_EET_St14__invoke_otherOT0_DpOT1_(ptr noundef nonnull align 8 dereferenceable(40) %5, ptr noundef nonnull align 4 dereferenceable(32) %6)
  ret void
}

; Function Attrs: mustprogress nounwind uwtable
define internal noundef ptr @_ZNSt14_Function_base13_Base_managerIZN11OpenImageIO6v3_1_0L10morph_implIttEEbRNS2_8ImageBufERKS4_iiNS2_7MorphOpENS2_3ROIEiEUlS9_E_E14_M_get_pointerERKSt9_Any_data(ptr noundef nonnull align 8 dereferenceable(16) %0) #8 align 2 {
  %2 = alloca ptr, align 8
  store ptr %0, ptr %2, align 8, !tbaa !352
  %3 = load ptr, ptr %2, align 8, !tbaa !352
  %4 = call noundef nonnull align 8 dereferenceable(8) ptr @_ZNKSt9_Any_data9_M_accessIPZN11OpenImageIO6v3_1_0L10morph_implIttEEbRNS2_8ImageBufERKS4_iiNS2_7MorphOpENS2_3ROIEiEUlS9_E_EERKT_v(ptr noundef nonnull align 8 dereferenceable(16) %3) #3
  %5 = load ptr, ptr %4, align 8, !tbaa !133
  ret ptr %5
}

; Function Attrs: mustprogress uwtable
define internal void @_ZNSt17_Function_handlerIFvN11OpenImageIO6v3_1_03ROIEEZNS1_L10morph_implIttEEbRNS1_8ImageBufERKS5_iiNS1_7MorphOpES2_iEUlS2_E_E9_M_invokeERKSt9_Any_dataOS2_(ptr noundef nonnull align 8 dereferenceable(16) %0, ptr noundef nonnull align 4 dereferenceable(32) %1) #6 align 2 {
  %3 = alloca ptr, align 8
  %4 = alloca ptr, align 8
  store ptr %0, ptr %3, align 8, !tbaa !352
  store ptr %1, ptr %4, align 8, !tbaa !8
  %5 = load ptr, ptr %3, align 8, !tbaa !352
  %6 = call noundef ptr @_ZNSt14_Function_base13_Base_managerIZN11OpenImageIO6v3_1_0L10morph_implIttEEbRNS2_8ImageBufERKS4_iiNS2_7MorphOpENS2_3ROIEiEUlS9_E_E14_M_get_pointerERKSt9_Any_data(ptr noundef nonnull align 8 dereferenceable(16) %5) #3
  %7 = load ptr, ptr %4, align 8, !tbaa !8
  call void @_ZSt10__invoke_rIvRZN11OpenImageIO6v3_1_0L10morph_implIttEEbRNS1_8ImageBufERKS3_iiNS1_7MorphOpENS1_3ROIEiEUlS8_E_JS8_EENSt9enable_ifIX16is_invocable_r_vIT_T0_DpT1_EESC_E4typeEOSD_DpOSE_(ptr noundef nonnull align 8 dereferenceable(40) %6, ptr noundef nonnull align 4 dereferenceable(32) %7)
  ret void
}